target datalayout = "e-m:e-p270:32:32-p271:32:32-p272:64:64-i64:64-i128:128-f80:128-n8:16:32:64-S128"
target triple = "x86_64-pc-linux-gnu"

@.str.137 = private unnamed_addr constant [30 x i8] c"openssl_conf = openssl_init\0A\0A\00", align 1
@.str.138 = private unnamed_addr constant [16 x i8] c"[openssl_init]\0A\00", align 1
@.str.139 = private unnamed_addr constant [31 x i8] c"providers = provider_section\0A\0A\00", align 1
@.str.140 = private unnamed_addr constant [20 x i8] c"[provider_section]\0A\00", align 1
@.str.141 = private unnamed_addr constant [10 x i8] c"%s = %s\0A\0A\00", align 1

; Function Attrs: nounwind uwtable
define internal i32 @write_config_header(ptr noundef %0, ptr noundef %1, ptr noundef %2) #0 {
  %4 = alloca ptr, align 8
  %5 = alloca ptr, align 8
  %6 = alloca ptr, align 8
  store ptr %0, ptr %4, align 8, !tbaa !13
  store ptr %1, ptr %5, align 8, !tbaa !11
  store ptr %2, ptr %6, align 8, !tbaa !11
  %7 = load ptr, ptr %4, align 8, !tbaa !13
  %8 = call i32 (ptr, ptr, ...) @BIO_printf(ptr noundef %7, ptr noundef @.str.137)
  %9 = icmp ne i32 %8, 0
  br i1 %9, label %10, label %28

10:                                               ; preds = %3
  %11 = load ptr, ptr %4, align 8, !tbaa !13
  %12 = call i32 (ptr, ptr, ...) @BIO_printf(ptr noundef %11, ptr noundef @.str.138)
  %13 = icmp ne i32 %12, 0
  br i1 %13, label %14, label %28

14:                                               ; preds = %10
  %15 = load ptr, ptr %4, align 8, !tbaa !13
  %16 = call i32 (ptr, ptr, ...) @BIO_printf(ptr noundef %15, ptr noundef @.str.139)
  %17 = icmp ne i32 %16, 0
  br i1 %17, label %18, label %28

18:                                               ; preds = %14
  %19 = load ptr, ptr %4, align 8, !tbaa !13
  %20 = call i32 (ptr, ptr, ...) @BIO_printf(ptr noundef %19, ptr noundef @.str.140)
  %21 = icmp ne i32 %20, 0
  br i1 %21, label %22, label %28

22:                                               ; preds = %18
  %23 = load ptr, ptr %4, align 8, !tbaa !13
  %24 = load ptr, ptr %5, align 8, !tbaa !11
  %25 = load ptr, ptr %6, align 8, !tbaa !11
  %26 = call i32 (ptr, ptr, ...) @BIO_printf(ptr noundef %23, ptr noundef @.str.141, ptr noundef %24, ptr noundef %25)
  %27 = icmp ne i32 %26, 0
  br label %28

28:                                               ; preds = %22, %18, %14, %10, %3
  %29 = phi i1 [ false, %18 ], [ false, %14 ], [ false, %10 ], [ false, %3 ], [ %27, %22 ]
  %30 = zext i1 %29 to i32
  ret i32 %30
}

; Function Attrs: nounwind uwtable
define internal ptr @generate_config_and_load(ptr noundef %0, ptr noundef %1, ptr noundef %2, i64 noundef %3, ptr noundef %4) #0 {
  %6 = alloca ptr, align 8
  %7 = alloca ptr, align 8
  %8 = alloca ptr, align 8
  %9 = alloca ptr, align 8
  %10 = alloca i64, align 8
  %11 = alloca ptr, align 8
  %12 = alloca ptr, align 8
  %13 = alloca ptr, align 8
  %14 = alloca i32, align 4
  store ptr %0, ptr %7, align 8, !tbaa !11
  store ptr %1, ptr %8, align 8, !tbaa !11
  store ptr %2, ptr %9, align 8, !tbaa !11
  store i64 %3, ptr %10, align 8, !tbaa !19
  store ptr %4, ptr %11, align 8, !tbaa !31
  call void @llvm.lifetime.start.p0(i64 8, ptr %12) #6
  store ptr null, ptr %12, align 8, !tbaa !13
  call void @llvm.lifetime.start.p0(i64 8, ptr %13) #6
  store ptr null, ptr %13, align 8, !tbaa !23
  %15 = call ptr @BIO_s_mem()
  %16 = call ptr @BIO_new(ptr noundef %15)
  store ptr %16, ptr %12, align 8, !tbaa !13
  %17 = load ptr, ptr %12, align 8, !tbaa !13
  %18 = icmp eq ptr %17, null
  br i1 %18, label %19, label %20

19:                                               ; preds = %5
  store ptr null, ptr %6, align 8
  store i32 1, ptr %14, align 4
  br label %54

20:                                               ; preds = %5
  %21 = load ptr, ptr %12, align 8, !tbaa !13
  %22 = load ptr, ptr %7, align 8, !tbaa !11
  %23 = load ptr, ptr %8, align 8, !tbaa !11
  %24 = call i32 @write_config_header(ptr noundef %21, ptr noundef %22, ptr noundef %23)
  %25 = icmp ne i32 %24, 0
  br i1 %25, label %26, label %34

26:                                               ; preds = %20
  %27 = load ptr, ptr %12, align 8, !tbaa !13
  %28 = load ptr, ptr %8, align 8, !tbaa !11
  %29 = load ptr, ptr %9, align 8, !tbaa !11
  %30 = load i64, ptr %10, align 8, !tbaa !19
  %31 = load ptr, ptr %11, align 8, !tbaa !31
  %32 = call i32 @write_config_fips_section(ptr noundef %27, ptr noundef %28, ptr noundef %29, i64 noundef %30, ptr noundef %31, ptr noundef null, i64 noundef 0)
  %33 = icmp ne i32 %32, 0
  br i1 %33, label %35, label %34

34:                                               ; preds = %26, %20
  br label %50

35:                                               ; preds = %26
  %36 = load ptr, ptr %12, align 8, !tbaa !13
  %37 = call ptr @app_load_config_bio(ptr noundef %36, ptr noundef null)
  store ptr %37, ptr %13, align 8, !tbaa !23
  %38 = load ptr, ptr %13, align 8, !tbaa !23
  %39 = icmp eq ptr %38, null
  br i1 %39, label %40, label %41

40:                                               ; preds = %35
  br label %50

41:                                               ; preds = %35
  %42 = load ptr, ptr %13, align 8, !tbaa !23
  %43 = call i32 @CONF_modules_load(ptr noundef %42, ptr noundef null, i64 noundef 0)
  %44 = icmp sle i32 %43, 0
  br i1 %44, label %45, label %46

45:                                               ; preds = %41
  br label %50

46:                                               ; preds = %41
  %47 = load ptr, ptr %12, align 8, !tbaa !13
  %48 = call i32 @BIO_free(ptr noundef %47)
  %49 = load ptr, ptr %13, align 8, !tbaa !23
  store ptr %49, ptr %6, align 8
  store i32 1, ptr %14, align 4
  br label %54

50:                                               ; preds = %45, %40, %34
  %51 = load ptr, ptr %13, align 8, !tbaa !23
  call void @NCONF_free(ptr noundef %51)
  %52 = load ptr, ptr %12, align 8, !tbaa !13
  %53 = call i32 @BIO_free(ptr noundef %52)
  store ptr null, ptr %6, align 8
  store i32 1, ptr %14, align 4
  br label %54

54:                                               ; preds = %50, %46, %19
  call void @llvm.lifetime.end.p0(i64 8, ptr %13) #6
  call void @llvm.lifetime.end.p0(i64 8, ptr %12) #6
  %55 = load ptr, ptr %6, align 8
  ret ptr %55
}