; Function Attrs: nounwind uwtable
define internal fastcc ptr @generate_config_and_load(ptr noundef %0, ptr noundef %1, ptr noundef nonnull %2, i64 noundef %3) unnamed_addr #0 {
  %5 = tail call ptr @BIO_s_mem() #6
  %6 = tail call ptr @BIO_new(ptr noundef %5) #6
  %7 = icmp eq ptr %6, null
  br i1 %7, label %26, label %8

8:                                                ; preds = %4
  %9 = tail call i32 (ptr, ptr, ...) @BIO_printf(ptr noundef nonnull %6, ptr noundef nonnull @.str.137) #6
  %.not.i = icmp eq i32 %9, 0
  br i1 %.not.i, label %write_config_header.exit.thread, label %10

10:                                               ; preds = %8
  %11 = tail call i32 (ptr, ptr, ...) @BIO_printf(ptr noundef nonnull %6, ptr noundef nonnull @.str.138) #6
  %.not7.i = icmp eq i32 %11, 0
  br i1 %.not7.i, label %write_config_header.exit.thread, label %12

12:                                               ; preds = %10
  %13 = tail call i32 (ptr, ptr, ...) @BIO_printf(ptr noundef nonnull %6, ptr noundef nonnull @.str.139) #6
  %.not8.i = icmp eq i32 %13, 0
  br i1 %.not8.i, label %write_config_header.exit.thread, label %14

14:                                               ; preds = %12
  %15 = tail call i32 (ptr, ptr, ...) @BIO_printf(ptr noundef nonnull %6, ptr noundef nonnull @.str.140) #6
  %.not9.i = icmp eq i32 %15, 0
  br i1 %.not9.i, label %write_config_header.exit.thread, label %write_config_header.exit

write_config_header.exit:                         ; preds = %14
  %16 = tail call i32 (ptr, ptr, ...) @BIO_printf(ptr noundef nonnull %6, ptr noundef nonnull @.str.141, ptr noundef %0, ptr noundef %1) #6
  %.not2 = icmp eq i32 %16, 0
  br i1 %.not2, label %write_config_header.exit.thread, label %17

17:                                               ; preds = %write_config_header.exit
  %18 = tail call fastcc i32 @write_config_fips_section(ptr noundef %6, ptr noundef %1, ptr noundef %2, i64 noundef %3, ptr noundef null, i64 noundef 0)
  %.not19 = icmp eq i32 %18, 0
  br i1 %.not19, label %write_config_header.exit.thread, label %19

19:                                               ; preds = %17
  %20 = tail call ptr @app_load_config_bio(ptr noundef nonnull %6, ptr noundef null) #6
  %21 = icmp eq ptr %20, null
  br i1 %21, label %write_config_header.exit.thread, label %22

22:                                               ; preds = %19
  %23 = tail call i32 @CONF_modules_load(ptr noundef nonnull %20, ptr noundef null, i64 noundef 0) #6
  %24 = icmp slt i32 %23, 1
  br i1 %24, label %write_config_header.exit.thread, label %.sink.split

write_config_header.exit.thread:                  ; preds = %8, %10, %12, %14, %22, %19, %write_config_header.exit, %17
  %.0 = phi ptr [ null, %19 ], [ %20, %22 ], [ null, %17 ], [ null, %write_config_header.exit ], [ null, %14 ], [ null, %12 ], [ null, %10 ], [ null, %8 ]
  tail call void @NCONF_free(ptr noundef %.0) #6
  br label %.sink.split

.sink.split:                                      ; preds = %22, %write_config_header.exit.thread
  %.016.ph = phi ptr [ null, %write_config_header.exit.thread ], [ %20, %22 ]
  %25 = tail call i32 @BIO_free(ptr noundef nonnull %6) #6
  br label %26

26:                                               ; preds = %.sink.split, %4
  %.016 = phi ptr [ null, %4 ], [ %.016.ph, %.sink.split ]
  ret ptr %.016
}